; Function Attrs: mustprogress nounwind uwtable
define internal fastcc void @_ZN12_GLOBAL__N_111StmtPrinter21VisitCXXNamedCastExprEPN5clang16CXXNamedCastExprE(ptr noundef nonnull align 8 dereferenceable(80) %0, ptr noundef nonnull %1) unnamed_addr #0 align 2 {
  %3 = alloca %"class.clang::QualType", align 8
  %4 = alloca %"class.llvm::Twine", align 8
  %5 = load ptr, ptr %0, align 8
  %6 = tail call noundef ptr @_ZNK5clang16CXXNamedCastExpr11getCastNameEv(ptr noundef nonnull align 8 dereferenceable(48) %1) #19
  %.not.i.i = icmp eq ptr %6, null
  br i1 %.not.i.i, label %_ZN4llvm11raw_ostreamlsEPKc.exit, label %_ZN4llvm9StringRefC2EPKc.exit.i

_ZN4llvm9StringRefC2EPKc.exit.i:                  ; preds = %2
  %7 = tail call noundef i64 @strlen(ptr noundef nonnull dereferenceable(1) %6) #19
  %8 = getelementptr inbounds nuw i8, ptr %5, i64 24
  %9 = load ptr, ptr %8, align 8
  %10 = getelementptr inbounds nuw i8, ptr %5, i64 32
  %11 = load ptr, ptr %10, align 8
  %12 = ptrtoint ptr %9 to i64
  %13 = ptrtoint ptr %11 to i64
  %14 = sub i64 %12, %13
  %15 = icmp ugt i64 %7, %14
  br i1 %15, label %16, label %18

16:                                               ; preds = %_ZN4llvm9StringRefC2EPKc.exit.i
  %17 = tail call noundef nonnull align 8 dereferenceable(48) ptr @_ZN4llvm11raw_ostream5writeEPKcm(ptr noundef nonnull align 8 dereferenceable(48) %5, ptr noundef nonnull %6, i64 noundef %7) #19
  br label %_ZN4llvm11raw_ostreamlsEPKc.exit

18:                                               ; preds = %_ZN4llvm9StringRefC2EPKc.exit.i
  %.not.i2.i = icmp eq i64 %7, 0
  br i1 %.not.i2.i, label %_ZN4llvm11raw_ostreamlsEPKc.exit, label %19

19:                                               ; preds = %18
  tail call void @llvm.memcpy.p0.p0.i64(ptr align 1 %11, ptr nonnull align 1 %6, i64 %7, i1 false)
  %20 = load ptr, ptr %10, align 8
  %21 = getelementptr inbounds i8, ptr %20, i64 %7
  store ptr %21, ptr %10, align 8
  br label %_ZN4llvm11raw_ostreamlsEPKc.exit

_ZN4llvm11raw_ostreamlsEPKc.exit:                 ; preds = %2, %16, %18, %19
  %.0.i.i = phi ptr [ %17, %16 ], [ %5, %19 ], [ %5, %18 ], [ %5, %2 ]
  %22 = getelementptr inbounds nuw i8, ptr %.0.i.i, i64 32
  %23 = load ptr, ptr %22, align 8
  %24 = getelementptr inbounds nuw i8, ptr %.0.i.i, i64 24
  %25 = load ptr, ptr %24, align 8
  %.not.i = icmp ult ptr %23, %25
  br i1 %.not.i, label %28, label %26

26:                                               ; preds = %_ZN4llvm11raw_ostreamlsEPKc.exit
  %27 = tail call noundef nonnull align 8 dereferenceable(48) ptr @_ZN4llvm11raw_ostream5writeEh(ptr noundef nonnull align 8 dereferenceable(48) %.0.i.i, i8 noundef zeroext 60) #19
  br label %_ZN4llvm11raw_ostreamlsEc.exit

28:                                               ; preds = %_ZN4llvm11raw_ostreamlsEPKc.exit
  %29 = getelementptr inbounds nuw i8, ptr %23, i64 1
  store ptr %29, ptr %22, align 8
  store i8 60, ptr %23, align 1
  br label %_ZN4llvm11raw_ostreamlsEc.exit

_ZN4llvm11raw_ostreamlsEc.exit:                   ; preds = %26, %28
  %30 = getelementptr inbounds nuw i8, ptr %1, i64 24
  %31 = load ptr, ptr %30, align 8
  %.sroa.0.0.copyload.i.i = load i64, ptr %31, align 8
  store i64 %.sroa.0.0.copyload.i.i, ptr %3, align 8
  %32 = load ptr, ptr %0, align 8
  %33 = getelementptr inbounds nuw i8, ptr %0, i64 24
  %34 = getelementptr inbounds nuw i8, ptr %4, i64 32
  store i8 1, ptr %34, align 8
  %35 = getelementptr inbounds nuw i8, ptr %4, i64 33
  store i8 1, ptr %35, align 1
  call void @_ZNK5clang8QualType5printERN4llvm11raw_ostreamERKNS_14PrintingPolicyERKNS1_5TwineEj(ptr noundef nonnull align 8 dereferenceable(8) %3, ptr noundef nonnull align 8 dereferenceable(48) %32, ptr noundef nonnull align 8 dereferenceable(16) %33, ptr noundef nonnull align 8 dereferenceable(34) %4, i32 noundef 0) #19
  %36 = load ptr, ptr %0, align 8
  %37 = getelementptr inbounds nuw i8, ptr %36, i64 24
  %38 = load ptr, ptr %37, align 8
  %39 = getelementptr inbounds nuw i8, ptr %36, i64 32
  %40 = load ptr, ptr %39, align 8
  %41 = ptrtoint ptr %38 to i64
  %42 = ptrtoint ptr %40 to i64
  %43 = sub i64 %41, %42
  %44 = icmp ult i64 %43, 2
  br i1 %44, label %45, label %47

45:                                               ; preds = %_ZN4llvm11raw_ostreamlsEc.exit
  %46 = call noundef nonnull align 8 dereferenceable(48) ptr @_ZN4llvm11raw_ostream5writeEPKcm(ptr noundef nonnull align 8 dereferenceable(48) %36, ptr noundef nonnull @.str.115, i64 noundef 2) #19
  br label %_ZN4llvm11raw_ostreamlsEPKc.exit7

47:                                               ; preds = %_ZN4llvm11raw_ostreamlsEc.exit
  store i16 10302, ptr %40, align 1
  %48 = load ptr, ptr %39, align 8
  %49 = getelementptr inbounds nuw i8, ptr %48, i64 2
  store ptr %49, ptr %39, align 8
  br label %_ZN4llvm11raw_ostreamlsEPKc.exit7

_ZN4llvm11raw_ostreamlsEPKc.exit7:                ; preds = %45, %47
  %50 = getelementptr inbounds nuw i8, ptr %1, i64 16
  %51 = load ptr, ptr %50, align 8
  %.not.i8 = icmp eq ptr %51, null
  br i1 %.not.i8, label %62, label %52

52:                                               ; preds = %_ZN4llvm11raw_ostreamlsEPKc.exit7
  %53 = getelementptr inbounds nuw i8, ptr %0, i64 16
  %54 = load ptr, ptr %53, align 8
  %.not.i17 = icmp eq ptr %54, null
  br i1 %.not.i17, label %61, label %55

55:                                               ; preds = %52
  %56 = load ptr, ptr %0, align 8
  %57 = load ptr, ptr %54, align 8
  %58 = getelementptr inbounds nuw i8, ptr %57, i64 16
  %59 = load ptr, ptr %58, align 8
  %60 = call noundef zeroext i1 %59(ptr noundef nonnull align 8 dereferenceable(8) %54, ptr noundef nonnull %51, ptr noundef nonnull align 8 dereferenceable(48) %56) #19
  br i1 %60, label %_ZN12_GLOBAL__N_111StmtPrinter9PrintExprEPN5clang4ExprE.exit, label %61

61:                                               ; preds = %55, %52
  call fastcc void @_ZN5clang15StmtVisitorBaseISt11add_pointerN12_GLOBAL__N_111StmtPrinterEvJEE5VisitEPNS_4StmtE(ptr noundef nonnull align 8 dereferenceable(80) %0, ptr noundef nonnull %51)
  br label %_ZN12_GLOBAL__N_111StmtPrinter9PrintExprEPN5clang4ExprE.exit

62:                                               ; preds = %_ZN4llvm11raw_ostreamlsEPKc.exit7
  %63 = load ptr, ptr %0, align 8
  %64 = getelementptr inbounds nuw i8, ptr %63, i64 24
  %65 = load ptr, ptr %64, align 8
  %66 = getelementptr inbounds nuw i8, ptr %63, i64 32
  %67 = load ptr, ptr %66, align 8
  %68 = ptrtoint ptr %65 to i64
  %69 = ptrtoint ptr %67 to i64
  %70 = sub i64 %68, %69
  %71 = icmp ult i64 %70, 11
  br i1 %71, label %72, label %74

72:                                               ; preds = %62
  %73 = call noundef nonnull align 8 dereferenceable(48) ptr @_ZN4llvm11raw_ostream5writeEPKcm(ptr noundef nonnull align 8 dereferenceable(48) %63, ptr noundef nonnull @.str.4, i64 noundef 11) #19
  br label %_ZN12_GLOBAL__N_111StmtPrinter9PrintExprEPN5clang4ExprE.exit

74:                                               ; preds = %62
  call void @llvm.memcpy.p0.p0.i64(ptr noundef nonnull align 1 dereferenceable(11) %67, ptr noundef nonnull align 1 dereferenceable(11) @.str.4, i64 11, i1 false)
  %75 = load ptr, ptr %66, align 8
  %76 = getelementptr inbounds nuw i8, ptr %75, i64 11
  store ptr %76, ptr %66, align 8
  br label %_ZN12_GLOBAL__N_111StmtPrinter9PrintExprEPN5clang4ExprE.exit

_ZN12_GLOBAL__N_111StmtPrinter9PrintExprEPN5clang4ExprE.exit: ; preds = %74, %72, %61, %55
  %77 = load ptr, ptr %0, align 8
  %78 = getelementptr inbounds nuw i8, ptr %77, i64 24
  %79 = load ptr, ptr %78, align 8
  %80 = getelementptr inbounds nuw i8, ptr %77, i64 32
  %81 = load ptr, ptr %80, align 8
  %82 = icmp eq ptr %79, %81
  br i1 %82, label %83, label %85

83:                                               ; preds = %_ZN12_GLOBAL__N_111StmtPrinter9PrintExprEPN5clang4ExprE.exit
  %84 = call noundef nonnull align 8 dereferenceable(48) ptr @_ZN4llvm11raw_ostream5writeEPKcm(ptr noundef nonnull align 8 dereferenceable(48) %77, ptr noundef nonnull @.str.2, i64 noundef 1) #19
  br label %_ZN4llvm11raw_ostreamlsEPKc.exit12

85:                                               ; preds = %_ZN12_GLOBAL__N_111StmtPrinter9PrintExprEPN5clang4ExprE.exit
  store i8 41, ptr %81, align 1
  %86 = load ptr, ptr %80, align 8
  %87 = getelementptr inbounds nuw i8, ptr %86, i64 1
  store ptr %87, ptr %80, align 8
  br label %_ZN4llvm11raw_ostreamlsEPKc.exit12

_ZN4llvm11raw_ostreamlsEPKc.exit12:               ; preds = %83, %85
  ret void
}